; Function Attrs: nounwind uwtable
define noundef i32 @ossl_quic_channel_ping(ptr noundef readonly captures(none) %0) local_unnamed_addr #0 {
  %2 = getelementptr inbounds nuw i8, ptr %0, i64 1568
  %3 = load i64, ptr %2, align 8
  %4 = trunc i64 %3 to i32
  %5 = lshr i32 %4, 14
  %6 = and i32 %5, 7
  %switch.selectcmp.i = icmp eq i32 %6, 2
  %switch.select.i = select i1 %switch.selectcmp.i, i32 1, i32 2
  %switch.selectcmp2.i = icmp eq i32 %6, 0
  %switch.select3.i = select i1 %switch.selectcmp2.i, i32 0, i32 %switch.select.i
  %7 = getelementptr inbounds nuw i8, ptr %0, i64 216
  %8 = load ptr, ptr %7, align 8, !tbaa !109
  tail call void @ossl_quic_tx_packetiser_schedule_ack_eliciting(ptr noundef %8, i32 noundef %switch.select3.i) #15
  ret i32 1
}